; ModuleID = 'bench/spike/original/s_roundToI32.ll'
source_filename = "bench/spike/original/s_roundToI32.ll"
target datalayout = "e-m:e-p270:32:32-p271:32:32-p272:64:64-i64:64-i128:128-f80:128-n8:16:32:64-S128"
target triple = "x86_64-pc-linux-gnu"

@softfloat_exceptionFlags = external thread_local local_unnamed_addr global i8, align 1

; Function Attrs: nounwind uwtable
define range(i64 -2147483648, 2147483648) i64 @softfloat_roundToI32(i1 noundef zeroext %0, i64 noundef %1, i8 noundef zeroext %2, i1 noundef zeroext %3) local_unnamed_addr #0 {
  %5 = icmp eq i8 %2, 0
  %6 = icmp ne i8 %2, 4
  %or.cond = xor i1 %5, %6
  %7 = zext i8 %2 to i32
  %8 = select i1 %0, i32 2, i32 3
  %9 = icmp eq i32 %8, %7
  %10 = select i1 %9, i64 4095, i64 0
  %.028 = select i1 %or.cond, i64 %10, i64 2048
  %11 = and i64 %1, 4095
  %12 = add i64 %.028, %1
  %.not = icmp ult i64 %12, 17592186044416
  br i1 %.not, label %13, label %29

13:                                               ; preds = %4
  %14 = lshr i64 %12, 12
  %.not31 = icmp eq i64 %11, 2048
  %15 = and i1 %.not31, %5
  %16 = zext i1 %15 to i64
  %17 = xor i64 %16, -1
  %18 = and i64 %14, %17
  %19 = sub nsw i64 0, %18
  %20 = select i1 %0, i64 %19, i64 %18
  %sext = shl i64 %20, 32
  %21 = ashr exact i64 %sext, 32
  %.not32 = icmp eq i64 %sext, 0
  %22 = icmp sgt i64 %21, -1
  %.not3334 = xor i1 %0, %22
  %or.cond35 = select i1 %.not32, i1 true, i1 %.not3334
  br i1 %or.cond35, label %23, label %29

23:                                               ; preds = %13
  %24 = icmp ne i64 %11, 0
  %or.cond4 = and i1 %3, %24
  br i1 %or.cond4, label %25, label %31

25:                                               ; preds = %23
  %26 = tail call align 1 ptr @llvm.threadlocal.address.p0(ptr align 1 @softfloat_exceptionFlags)
  %27 = load i8, ptr %26, align 1, !tbaa !3
  %28 = or i8 %27, 1
  store i8 %28, ptr %26, align 1, !tbaa !3
  br label %31

29:                                               ; preds = %13, %4
  tail call void @softfloat_raiseFlags(i8 noundef zeroext 16) #3
  %30 = select i1 %0, i64 -2147483648, i64 2147483647
  br label %31

31:                                               ; preds = %23, %25, %29
  %.0 = phi i64 [ %30, %29 ], [ %21, %25 ], [ %21, %23 ]
  ret i64 %.0
}

; Function Attrs: mustprogress nocallback nofree nosync nounwind speculatable willreturn memory(none)
declare nonnull ptr @llvm.threadlocal.address.p0(ptr nonnull) #1

declare void @softfloat_raiseFlags(i8 noundef zeroext) local_unnamed_addr #2


!llvm.module.flags = !{!0, !1, !2}

!0 = !{i32 1, !"wchar_size", i32 4}
!1 = !{i32 8, !"PIC Level", i32 2}
!2 = !{i32 7, !"uwtable", i32 2}
!3 = !{!4, !4, i64 0}
!4 = !{!"omnipotent char", !5, i64 0}
!5 = !{!"Simple C/C++ TBAA"}
